target datalayout = "e-m:e-p270:32:32-p271:32:32-p272:64:64-i64:64-i128:128-f80:128-n8:16:32:64-S128"
target triple = "x86_64-unknown-linux-gnu"

%"class.icu_75::DateIntervalInfo" = type { %"class.icu_75::UObject", %"class.icu_75::UnicodeString", i8, ptr }
%"class.icu_75::UObject" = type { ptr }
%"class.icu_75::UnicodeString" = type { %"class.icu_75::Replaceable", %"union.icu_75::UnicodeString::StackBufferOrFields" }
%"class.icu_75::Replaceable" = type { %"class.icu_75::UObject" }
%"union.icu_75::UnicodeString::StackBufferOrFields" = type { %struct.anon.0, [32 x i8] }
%struct.anon.0 = type { i16, i32, i32, ptr }
%"class.icu_75::Hashtable" = type { ptr, %struct.UHashtable }
%struct.UHashtable = type { ptr, ptr, ptr, ptr, ptr, ptr, i32, i32, i32, i32, float, float, i8, i8 }
%struct.anon = type { i16, [27 x i16] }

@_ZTVN6icu_757UObjectE = external unnamed_addr constant { [5 x ptr] }, align 8
@_ZTVN6icu_7513UnicodeStringE = external unnamed_addr constant { [13 x ptr] }, align 8
@_ZTVN6icu_7511ReplaceableE = external unnamed_addr constant { [13 x ptr] }, align 8

; Function Attrs: mustprogress nounwind uwtable
define linkonce_odr void @_ZN6icu_757UObjectC2Ev(ptr noundef nonnull align 8 dereferenceable(8) %this) unnamed_addr #0 comdat align 2 {
entry:
  %this.addr = alloca ptr, align 8
  store ptr %this, ptr %this.addr, align 8
  %this1 = load ptr, ptr %this.addr, align 8
  store ptr getelementptr inbounds ({ [5 x ptr] }, ptr @_ZTVN6icu_757UObjectE, i32 0, i32 0, i32 2), ptr %this1, align 8
  ret void
}

; Function Attrs: mustprogress nounwind uwtable
define linkonce_odr void @_ZN6icu_7511ReplaceableC2Ev(ptr noundef nonnull align 8 dereferenceable(8) %this) unnamed_addr #0 comdat align 2 {
entry:
  %this.addr = alloca ptr, align 8
  store ptr %this, ptr %this.addr, align 8
  %this1 = load ptr, ptr %this.addr, align 8
  call void @_ZN6icu_757UObjectC2Ev(ptr noundef nonnull align 8 dereferenceable(8) %this1) #9
  store ptr getelementptr inbounds ({ [13 x ptr] }, ptr @_ZTVN6icu_7511ReplaceableE, i32 0, i32 0, i32 2), ptr %this1, align 8
  ret void
}

; Function Attrs: mustprogress uwtable
define linkonce_odr noundef ptr @_ZN6icu_759Hashtable3putERKNS_13UnicodeStringEPvR10UErrorCode(ptr noundef nonnull align 8 dereferenceable(88) %this, ptr noundef nonnull align 8 dereferenceable(64) %key, ptr noundef %value, ptr noundef nonnull align 4 dereferenceable(4) %status) #1 comdat align 2 personality ptr @__gxx_personality_v0 {
entry:
  %this.addr = alloca ptr, align 8
  %key.addr = alloca ptr, align 8
  %value.addr = alloca ptr, align 8
  %status.addr = alloca ptr, align 8
  %cleanup.cond = alloca i1, align 1
  %exn.slot = alloca ptr, align 8
  %ehselector.slot = alloca i32, align 4
  store ptr %this, ptr %this.addr, align 8
  store ptr %key, ptr %key.addr, align 8
  store ptr %value, ptr %value.addr, align 8
  store ptr %status, ptr %status.addr, align 8
  %this1 = load ptr, ptr %this.addr, align 8
  %hash = getelementptr inbounds %"class.icu_75::Hashtable", ptr %this1, i32 0, i32 0
  %0 = load ptr, ptr %hash, align 8
  %call = call noundef ptr @_ZN6icu_757UMemorynwEm(i64 noundef 64) #9
  %new.isnull = icmp eq ptr %call, null
  store i1 false, ptr %cleanup.cond, align 1
  br i1 %new.isnull, label %new.cont, label %new.notnull

new.notnull:                                      ; preds = %entry
  store i1 true, ptr %cleanup.cond, align 1
  %1 = load ptr, ptr %key.addr, align 8
  invoke void @_ZN6icu_7513UnicodeStringC1ERKS0_(ptr noundef nonnull align 8 dereferenceable(64) %call, ptr noundef nonnull align 8 dereferenceable(64) %1)
          to label %invoke.cont unwind label %lpad

invoke.cont:                                      ; preds = %new.notnull
  br label %new.cont

new.cont:                                         ; preds = %invoke.cont, %entry
  %2 = phi ptr [ %call, %invoke.cont ], [ null, %entry ]
  %3 = load ptr, ptr %value.addr, align 8
  %4 = load ptr, ptr %status.addr, align 8
  %call2 = call ptr @uhash_put_75(ptr noundef %0, ptr noundef %2, ptr noundef %3, ptr noundef %4)
  ret ptr %call2

lpad:                                             ; preds = %new.notnull
  %5 = landingpad { ptr, i32 }
          cleanup
  %6 = extractvalue { ptr, i32 } %5, 0
  store ptr %6, ptr %exn.slot, align 8
  %7 = extractvalue { ptr, i32 } %5, 1
  store i32 %7, ptr %ehselector.slot, align 4
  %cleanup.is_active = load i1, ptr %cleanup.cond, align 1
  br i1 %cleanup.is_active, label %cleanup.action, label %cleanup.done

cleanup.action:                                   ; preds = %lpad
  call void @_ZN6icu_757UMemorydlEPv(ptr noundef %call) #9
  br label %cleanup.done

cleanup.done:                                     ; preds = %cleanup.action, %lpad
  br label %eh.resume

eh.resume:                                        ; preds = %cleanup.done
  %exn = load ptr, ptr %exn.slot, align 8
  %sel = load i32, ptr %ehselector.slot, align 4
  %lpad.val = insertvalue { ptr, i32 } poison, ptr %exn, 0
  %lpad.val3 = insertvalue { ptr, i32 } %lpad.val, i32 %sel, 1
  resume { ptr, i32 } %lpad.val3
}

; Function Attrs: mustprogress uwtable
define linkonce_odr void @_ZN6icu_7513UnicodeStringC2Ev(ptr noundef nonnull align 8 dereferenceable(64) %this) unnamed_addr #1 comdat align 2 {
entry:
  %this.addr = alloca ptr, align 8
  store ptr %this, ptr %this.addr, align 8
  %this1 = load ptr, ptr %this.addr, align 8
  call void @_ZN6icu_7511ReplaceableC2Ev(ptr noundef nonnull align 8 dereferenceable(8) %this1)
  store ptr getelementptr inbounds ({ [13 x ptr] }, ptr @_ZTVN6icu_7513UnicodeStringE, i32 0, i32 0, i32 2), ptr %this1, align 8
  %fUnion2 = getelementptr inbounds %"class.icu_75::UnicodeString", ptr %this1, i32 0, i32 1
  %fLengthAndFlags = getelementptr inbounds %struct.anon, ptr %fUnion2, i32 0, i32 0
  store i16 2, ptr %fLengthAndFlags, align 8
  ret void
}

; Function Attrs: mustprogress uwtable
define linkonce_odr noundef ptr @_ZNK6icu_759Hashtable3getERKNS_13UnicodeStringE(ptr noundef nonnull align 8 dereferenceable(88) %this, ptr noundef nonnull align 8 dereferenceable(64) %key) #1 comdat align 2 {
entry:
  %this.addr = alloca ptr, align 8
  %key.addr = alloca ptr, align 8
  store ptr %this, ptr %this.addr, align 8
  store ptr %key, ptr %key.addr, align 8
  %this1 = load ptr, ptr %this.addr, align 8
  %hash = getelementptr inbounds %"class.icu_75::Hashtable", ptr %this1, i32 0, i32 0
  %0 = load ptr, ptr %hash, align 8
  %1 = load ptr, ptr %key.addr, align 8
  %call = call ptr @uhash_get_75(ptr noundef %0, ptr noundef %1)
  ret ptr %call
}

; Function Attrs: mustprogress nounwind uwtable
define internal noundef signext i8 @_ZL9U_FAILURE10UErrorCode(i32 noundef %code) #0 {
entry:
  %code.addr = alloca i32, align 4
  store i32 %code, ptr %code.addr, align 4
  %0 = load i32, ptr %code.addr, align 4
  %cmp = icmp sgt i32 %0, 0
  %conv = zext i1 %cmp to i8
  ret i8 %conv
}

; Function Attrs: mustprogress uwtable
define noundef i32 @_ZN6icu_7516DateIntervalInfo28calendarFieldToIntervalIndexE19UCalendarDateFieldsR10UErrorCode(i32 noundef %field, ptr noundef nonnull align 4 dereferenceable(4) %status) #1 align 2 {
entry:
  %retval = alloca i32, align 4
  %field.addr = alloca i32, align 4
  %status.addr = alloca ptr, align 8
  %index = alloca i32, align 4
  store i32 %field, ptr %field.addr, align 4
  store ptr %status, ptr %status.addr, align 8
  %0 = load ptr, ptr %status.addr, align 8
  %1 = load i32, ptr %0, align 4
  %call = call noundef signext i8 @_ZL9U_FAILURE10UErrorCode(i32 noundef %1)
  %tobool = icmp ne i8 %call, 0
  br i1 %tobool, label %if.then, label %if.end

if.then:                                          ; preds = %entry
  store i32 9, ptr %retval, align 4
  br label %return

if.end:                                           ; preds = %entry
  store i32 9, ptr %index, align 4
  %2 = load i32, ptr %field.addr, align 4
  switch i32 %2, label %sw.default [
    i32 0, label %sw.bb
    i32 1, label %sw.bb1
    i32 2, label %sw.bb2
    i32 5, label %sw.bb3
    i32 7, label %sw.bb3
    i32 9, label %sw.bb4
    i32 10, label %sw.bb5
    i32 11, label %sw.bb5
    i32 12, label %sw.bb6
    i32 13, label %sw.bb7
    i32 14, label %sw.bb8
  ]

sw.bb:                                            ; preds = %if.end
  store i32 0, ptr %index, align 4
  br label %sw.epilog

sw.bb1:                                           ; preds = %if.end
  store i32 1, ptr %index, align 4
  br label %sw.epilog

sw.bb2:                                           ; preds = %if.end
  store i32 2, ptr %index, align 4
  br label %sw.epilog

sw.bb3:                                           ; preds = %if.end, %if.end
  store i32 3, ptr %index, align 4
  br label %sw.epilog

sw.bb4:                                           ; preds = %if.end
  store i32 4, ptr %index, align 4
  br label %sw.epilog

sw.bb5:                                           ; preds = %if.end, %if.end
  store i32 5, ptr %index, align 4
  br label %sw.epilog

sw.bb6:                                           ; preds = %if.end
  store i32 6, ptr %index, align 4
  br label %sw.epilog

sw.bb7:                                           ; preds = %if.end
  store i32 7, ptr %index, align 4
  br label %sw.epilog

sw.bb8:                                           ; preds = %if.end
  store i32 8, ptr %index, align 4
  br label %sw.epilog

sw.default:                                       ; preds = %if.end
  %3 = load ptr, ptr %status.addr, align 8
  store i32 1, ptr %3, align 4
  br label %sw.epilog

sw.epilog:                                        ; preds = %sw.default, %sw.bb8, %sw.bb7, %sw.bb6, %sw.bb5, %sw.bb4, %sw.bb3, %sw.bb2, %sw.bb1, %sw.bb
  %4 = load i32, ptr %index, align 4
  store i32 %4, ptr %retval, align 4
  br label %return

return:                                           ; preds = %sw.epilog, %if.then
  %5 = load i32, ptr %retval, align 4
  ret i32 %5
}

; Function Attrs: mustprogress uwtable
define void @_ZN6icu_7516DateIntervalInfo28setIntervalPatternInternallyERKNS_13UnicodeStringE19UCalendarDateFieldsS3_R10UErrorCode(ptr noundef nonnull align 8 dereferenceable(88) %this, ptr noundef nonnull align 8 dereferenceable(64) %skeleton, i32 noundef %lrgDiffCalUnit, ptr noundef nonnull align 8 dereferenceable(64) %intervalPattern, ptr noundef nonnull align 4 dereferenceable(4) %status) #1 align 2 personality ptr @__gxx_personality_v0 {
entry:
  %this.addr = alloca ptr, align 8
  %skeleton.addr = alloca ptr, align 8
  %lrgDiffCalUnit.addr = alloca i32, align 4
  %intervalPattern.addr = alloca ptr, align 8
  %status.addr = alloca ptr, align 8
  %index = alloca i32, align 4
  %patternsOfOneSkeleton = alloca ptr, align 8
  %emptyHash = alloca i8, align 1
  %saved-rvalue = alloca ptr, align 8
  %cleanup.cond = alloca i1, align 1
  %cond-cleanup.save = alloca ptr, align 8
  %cond-cleanup.save6 = alloca ptr, align 8
  %cleanup.cond7 = alloca i1, align 1
  %exn.slot = alloca ptr, align 8
  %ehselector.slot = alloca i32, align 4
  store ptr %this, ptr %this.addr, align 8
  store ptr %skeleton, ptr %skeleton.addr, align 8
  store i32 %lrgDiffCalUnit, ptr %lrgDiffCalUnit.addr, align 4
  store ptr %intervalPattern, ptr %intervalPattern.addr, align 8
  store ptr %status, ptr %status.addr, align 8
  %this1 = load ptr, ptr %this.addr, align 8
  %0 = load i32, ptr %lrgDiffCalUnit.addr, align 4
  %1 = load ptr, ptr %status.addr, align 8
  %call = call noundef i32 @_ZN6icu_7516DateIntervalInfo28calendarFieldToIntervalIndexE19UCalendarDateFieldsR10UErrorCode(i32 noundef %0, ptr noundef nonnull align 4 dereferenceable(4) %1)
  store i32 %call, ptr %index, align 4
  %2 = load ptr, ptr %status.addr, align 8
  %3 = load i32, ptr %2, align 4
  %call2 = call noundef signext i8 @_ZL9U_FAILURE10UErrorCode(i32 noundef %3)
  %tobool = icmp ne i8 %call2, 0
  br i1 %tobool, label %if.then, label %if.end

if.then:                                          ; preds = %entry
  br label %if.end21

if.end:                                           ; preds = %entry
  %fIntervalPatterns = getelementptr inbounds %"class.icu_75::DateIntervalInfo", ptr %this1, i32 0, i32 3
  %4 = load ptr, ptr %fIntervalPatterns, align 8
  %5 = load ptr, ptr %skeleton.addr, align 8
  %call3 = call noundef ptr @_ZNK6icu_759Hashtable3getERKNS_13UnicodeStringE(ptr noundef nonnull align 8 dereferenceable(88) %4, ptr noundef nonnull align 8 dereferenceable(64) %5)
  store ptr %call3, ptr %patternsOfOneSkeleton, align 8
  store i8 0, ptr %emptyHash, align 1
  %6 = load ptr, ptr %patternsOfOneSkeleton, align 8
  %cmp = icmp eq ptr %6, null
  br i1 %cmp, label %if.then4, label %if.end15

if.then4:                                         ; preds = %if.end
  %call5 = call noundef ptr @_ZN6icu_757UMemorynaEm(i64 noundef 584) #9
  %new.isnull = icmp eq ptr %call5, null
  store i1 false, ptr %cleanup.cond, align 1
  store i1 false, ptr %cleanup.cond7, align 1
  br i1 %new.isnull, label %new.cont, label %new.notnull

new.notnull:                                      ; preds = %if.then4
  store ptr %call5, ptr %saved-rvalue, align 8
  store i1 true, ptr %cleanup.cond, align 1
  store i64 9, ptr %call5, align 8
  %7 = getelementptr inbounds i8, ptr %call5, i64 8
  %arrayctor.end = getelementptr inbounds %"class.icu_75::UnicodeString", ptr %7, i64 9
  br label %arrayctor.loop

arrayctor.loop:                                   ; preds = %invoke.cont, %new.notnull
  %arrayctor.cur = phi ptr [ %7, %new.notnull ], [ %arrayctor.next, %invoke.cont ]
  store ptr %7, ptr %cond-cleanup.save, align 8
  store ptr %arrayctor.cur, ptr %cond-cleanup.save6, align 8
  store i1 true, ptr %cleanup.cond7, align 1
  invoke void @_ZN6icu_7513UnicodeStringC2Ev(ptr noundef nonnull align 8 dereferenceable(64) %arrayctor.cur)
          to label %invoke.cont unwind label %lpad

invoke.cont:                                      ; preds = %arrayctor.loop
  %arrayctor.next = getelementptr inbounds %"class.icu_75::UnicodeString", ptr %arrayctor.cur, i64 1
  %arrayctor.done = icmp eq ptr %arrayctor.next, %arrayctor.end
  br i1 %arrayctor.done, label %arrayctor.cont, label %arrayctor.loop

arrayctor.cont:                                   ; preds = %invoke.cont
  br label %new.cont

new.cont:                                         ; preds = %arrayctor.cont, %if.then4
  %8 = phi ptr [ %7, %arrayctor.cont ], [ null, %if.then4 ]
  store ptr %8, ptr %patternsOfOneSkeleton, align 8
  %9 = load ptr, ptr %patternsOfOneSkeleton, align 8
  %cmp12 = icmp eq ptr %9, null
  br i1 %cmp12, label %if.then13, label %if.end14

if.then13:                                        ; preds = %new.cont
  %10 = load ptr, ptr %status.addr, align 8
  store i32 7, ptr %10, align 4
  br label %if.end21

lpad:                                             ; preds = %arrayctor.loop
  %11 = landingpad { ptr, i32 }
          cleanup
  %12 = extractvalue { ptr, i32 } %11, 0
  store ptr %12, ptr %exn.slot, align 8
  %13 = extractvalue { ptr, i32 } %11, 1
  store i32 %13, ptr %ehselector.slot, align 4
  %cleanup.is_active = load i1, ptr %cleanup.cond7, align 1
  br i1 %cleanup.is_active, label %cleanup.action, label %cleanup.done

cleanup.action:                                   ; preds = %lpad
  %14 = load ptr, ptr %cond-cleanup.save, align 8
  %15 = load ptr, ptr %cond-cleanup.save6, align 8
  %arraydestroy.isempty = icmp eq ptr %14, %15
  br i1 %arraydestroy.isempty, label %arraydestroy.done8, label %arraydestroy.body

arraydestroy.body:                                ; preds = %arraydestroy.body, %cleanup.action
  %arraydestroy.elementPast = phi ptr [ %15, %cleanup.action ], [ %arraydestroy.element, %arraydestroy.body ]
  %arraydestroy.element = getelementptr inbounds %"class.icu_75::UnicodeString", ptr %arraydestroy.elementPast, i64 -1
  call void @_ZN6icu_7513UnicodeStringD1Ev(ptr noundef nonnull align 8 dereferenceable(64) %arraydestroy.element) #9
  %arraydestroy.done = icmp eq ptr %arraydestroy.element, %14
  br i1 %arraydestroy.done, label %arraydestroy.done8, label %arraydestroy.body

arraydestroy.done8:                               ; preds = %arraydestroy.body, %cleanup.action
  br label %cleanup.done

cleanup.done:                                     ; preds = %arraydestroy.done8, %lpad
  %cleanup.is_active9 = load i1, ptr %cleanup.cond, align 1
  br i1 %cleanup.is_active9, label %cleanup.action10, label %cleanup.done11

cleanup.action10:                                 ; preds = %cleanup.done
  %16 = load ptr, ptr %saved-rvalue, align 8
  call void @_ZN6icu_757UMemorydaEPv(ptr noundef %16) #9
  br label %cleanup.done11

cleanup.done11:                                   ; preds = %cleanup.action10, %cleanup.done
  br label %eh.resume

if.end14:                                         ; preds = %new.cont
  store i8 1, ptr %emptyHash, align 1
  br label %if.end15

if.end15:                                         ; preds = %if.end14, %if.end
  %17 = load ptr, ptr %intervalPattern.addr, align 8
  %18 = load ptr, ptr %patternsOfOneSkeleton, align 8
  %19 = load i32, ptr %index, align 4
  %idxprom = zext i32 %19 to i64
  %arrayidx = getelementptr inbounds %"class.icu_75::UnicodeString", ptr %18, i64 %idxprom
  %call16 = call noundef nonnull align 8 dereferenceable(64) ptr @_ZN6icu_7513UnicodeStringaSERKS0_(ptr noundef nonnull align 8 dereferenceable(64) %arrayidx, ptr noundef nonnull align 8 dereferenceable(64) %17)
  %20 = load i8, ptr %emptyHash, align 1
  %tobool17 = icmp ne i8 %20, 0
  br i1 %tobool17, label %if.then18, label %if.end21

if.then18:                                        ; preds = %if.end15
  %fIntervalPatterns19 = getelementptr inbounds %"class.icu_75::DateIntervalInfo", ptr %this1, i32 0, i32 3
  %21 = load ptr, ptr %fIntervalPatterns19, align 8
  %22 = load ptr, ptr %skeleton.addr, align 8
  %23 = load ptr, ptr %patternsOfOneSkeleton, align 8
  %24 = load ptr, ptr %status.addr, align 8
  %call20 = call noundef ptr @_ZN6icu_759Hashtable3putERKNS_13UnicodeStringEPvR10UErrorCode(ptr noundef nonnull align 8 dereferenceable(88) %21, ptr noundef nonnull align 8 dereferenceable(64) %22, ptr noundef %23, ptr noundef nonnull align 4 dereferenceable(4) %24)
  br label %if.end21

if.end21:                                         ; preds = %if.then18, %if.end15, %if.then13, %if.then
  ret void

eh.resume:                                        ; preds = %cleanup.done11
  %exn = load ptr, ptr %exn.slot, align 8
  %sel = load i32, ptr %ehselector.slot, align 4
  %lpad.val = insertvalue { ptr, i32 } poison, ptr %exn, 0
  %lpad.val22 = insertvalue { ptr, i32 } %lpad.val, i32 %sel, 1
  resume { ptr, i32 } %lpad.val22
}