; Function Attrs: mustprogress uwtable
define void @_ZN6icu_7516DateIntervalInfo28setIntervalPatternInternallyERKNS_13UnicodeStringE19UCalendarDateFieldsS3_R10UErrorCode(ptr nocapture noundef nonnull readonly align 8 dereferenceable(88) %this, ptr noundef nonnull align 8 dereferenceable(64) %skeleton, i32 noundef %lrgDiffCalUnit, ptr noundef nonnull align 8 dereferenceable(64) %intervalPattern, ptr noundef nonnull align 4 dereferenceable(4) %status) local_unnamed_addr #1 align 2 personality ptr @__gxx_personality_v0 {
entry:
  %0 = load i32, ptr %status, align 4
  %cmp.i.i = icmp slt i32 %0, 1
  br i1 %cmp.i.i, label %if.end.i, label %if.end21

if.end.i:                                         ; preds = %entry
  %1 = icmp ult i32 %lrgDiffCalUnit, 15
  br i1 %1, label %switch.hole_check, label %sw.default.i

sw.default.i:                                     ; preds = %switch.hole_check, %if.end.i
  store i32 1, ptr %status, align 4
  br label %if.end21

switch.hole_check:                                ; preds = %if.end.i
  %switch.maskindex = trunc i32 %lrgDiffCalUnit to i16
  %switch.shifted = lshr i16 32423, %switch.maskindex
  %2 = and i16 %switch.shifted, 1
  %switch.lobit.not = icmp eq i16 %2, 0
  br i1 %switch.lobit.not, label %sw.default.i, label %switch.lookup

switch.lookup:                                    ; preds = %switch.hole_check
  %3 = zext nneg i32 %lrgDiffCalUnit to i64
  %switch.gep = getelementptr inbounds [15 x i64], ptr @switch.table._ZN6icu_7516DateIntervalInfo16DateIntervalSink26setIntervalPatternIfAbsentEPKc19UCalendarDateFieldsRKNS_13ResourceValueER10UErrorCode, i64 0, i64 %3
  %switch.load = load i64, ptr %switch.gep, align 8
  %fIntervalPatterns = getelementptr inbounds i8, ptr %this, i64 80
  %4 = load ptr, ptr %fIntervalPatterns, align 8
  %5 = load ptr, ptr %4, align 8
  %call.i = tail call noundef ptr @uhash_get_75(ptr noundef %5, ptr noundef nonnull %skeleton)
  %cmp.not = icmp eq ptr %call.i, null
  br i1 %cmp.not, label %if.then4, label %if.end15.thread

if.end15.thread:                                  ; preds = %switch.lookup
  %arrayidx12 = getelementptr inbounds %"class.icu_75::UnicodeString", ptr %call.i, i64 %switch.load
  %call1613 = tail call noundef nonnull align 8 dereferenceable(64) ptr @_ZN6icu_7513UnicodeStringaSERKS0_(ptr noundef nonnull align 8 dereferenceable(64) %arrayidx12, ptr noundef nonnull align 8 dereferenceable(64) %intervalPattern)
  br label %if.end21

if.then4:                                         ; preds = %switch.lookup
  %call5 = tail call noundef ptr @_ZN6icu_757UMemorynaEm(i64 noundef 584) #15
  %new.isnull = icmp eq ptr %call5, null
  br i1 %new.isnull, label %if.then13, label %new.notnull

new.notnull:                                      ; preds = %if.then4
  store i64 9, ptr %call5, align 8
  br label %invoke.cont

invoke.cont:                                      ; preds = %new.notnull, %invoke.cont
  %arrayctor.cur.idx = phi i64 [ 8, %new.notnull ], [ %arrayctor.cur.add, %invoke.cont ]
  %arrayctor.cur.ptr.ptr = getelementptr inbounds i8, ptr %call5, i64 %arrayctor.cur.idx
  store ptr getelementptr inbounds ({ [13 x ptr] }, ptr @_ZTVN6icu_7513UnicodeStringE, i64 0, i32 0, i64 2), ptr %arrayctor.cur.ptr.ptr, align 8
  %fUnion2.i = getelementptr inbounds i8, ptr %arrayctor.cur.ptr.ptr, i64 8
  store i16 2, ptr %fUnion2.i, align 8
  %arrayctor.cur.add = add nuw nsw i64 %arrayctor.cur.idx, 64
  %arrayctor.done = icmp eq i64 %arrayctor.cur.add, 584
  br i1 %arrayctor.done, label %if.end15, label %invoke.cont

if.then13:                                        ; preds = %if.then4
  store i32 7, ptr %status, align 4
  br label %if.end21

if.end15:                                         ; preds = %invoke.cont
  %.ptr = getelementptr inbounds i8, ptr %call5, i64 8
  %arrayidx = getelementptr inbounds %"class.icu_75::UnicodeString", ptr %.ptr, i64 %switch.load
  %call16 = tail call noundef nonnull align 8 dereferenceable(64) ptr @_ZN6icu_7513UnicodeStringaSERKS0_(ptr noundef nonnull align 8 dereferenceable(64) %arrayidx, ptr noundef nonnull align 8 dereferenceable(64) %intervalPattern)
  %6 = load ptr, ptr %fIntervalPatterns, align 8
  %7 = load ptr, ptr %6, align 8
  %call.i8 = tail call noundef ptr @_ZN6icu_757UMemorynwEm(i64 noundef 64) #15
  %new.isnull.i = icmp eq ptr %call.i8, null
  br i1 %new.isnull.i, label %_ZN6icu_759Hashtable3putERKNS_13UnicodeStringEPvR10UErrorCode.exit, label %new.notnull.i

new.notnull.i:                                    ; preds = %if.end15
  invoke void @_ZN6icu_7513UnicodeStringC1ERKS0_(ptr noundef nonnull align 8 dereferenceable(64) %call.i8, ptr noundef nonnull align 8 dereferenceable(64) %skeleton)
          to label %_ZN6icu_759Hashtable3putERKNS_13UnicodeStringEPvR10UErrorCode.exit unwind label %lpad.i

lpad.i:                                           ; preds = %new.notnull.i
  %8 = landingpad { ptr, i32 }
          cleanup
  tail call void @_ZN6icu_757UMemorydlEPv(ptr noundef nonnull %call.i8) #15
  resume { ptr, i32 } %8

_ZN6icu_759Hashtable3putERKNS_13UnicodeStringEPvR10UErrorCode.exit: ; preds = %if.end15, %new.notnull.i
  %call2.i = tail call noundef ptr @uhash_put_75(ptr noundef %7, ptr noundef %call.i8, ptr noundef nonnull %.ptr, ptr noundef nonnull %status)
  br label %if.end21

if.end21:                                         ; preds = %sw.default.i, %entry, %if.end15.thread, %_ZN6icu_759Hashtable3putERKNS_13UnicodeStringEPvR10UErrorCode.exit, %if.then13
  ret void
}